Certificate:
    Data:
        Version: 3 (0x2)
        Serial Number: 4661 (0x1235)
        Signature Algorithm: sha256WithRSAEncryption
        Issuer: CN=www.modelCA.com, O=Model CA LTD., C=US
        Validity
            Not Before: Oct 16 08:01:49 2023 GMT
            Not After : Oct 13 08:01:49 2033 GMT
        Subject: C=US, O=Yuchen2023 Inc., CN=www.yuchen2023.com
        Subject Public Key Info:
            Public Key Algorithm: rsaEncryption
                RSA Public-Key: (2048 bit)
                Modulus:
                    00:bc:1a:df:63:2a:8c:5f:99:a5:92:f5:02:b2:7f:
                    f8:bc:18:f9:31:23:aa:c5:60:2d:07:a4:5c:38:fc:
                    66:f2:8d:ac:d1:a0:89:84:e2:39:fb:4e:d8:97:48:
                    94:ad:26:40:92:b0:82:c5:cc:4f:77:a2:70:fb:03:
                    31:75:47:65:c0:3a:10:43:f5:18:6f:02:5d:09:8e:
                    a4:b8:00:9b:9b:a5:c4:0e:64:89:ce:2f:00:a2:c8:
                    54:9b:8b:68:b3:44:96:67:7e:61:80:c4:58:ad:62:
                    71:24:30:a1:ce:c8:b0:b5:a7:5e:4d:e1:fa:9a:19:
                    fe:46:cd:69:5b:bc:98:74:c4:d5:be:cc:e6:48:e8:
                    13:0e:99:ed:e9:74:59:41:ab:99:fc:19:e2:70:31:
                    83:d1:e5:93:93:6b:c9:ff:f2:07:eb:24:25:3e:f3:
                    9b:2a:ec:51:7a:c1:f3:3f:77:a2:0e:bf:d4:4f:0c:
                    78:99:9b:2e:8c:14:29:25:8f:c2:b3:80:3d:02:b9:
                    20:26:dc:e7:ed:4a:d3:68:4f:01:25:2e:54:26:db:
                    95:98:38:1a:37:ce:8f:15:97:22:94:8d:1d:92:35:
                    17:47:7f:e5:05:30:c5:0b:bf:3f:b5:11:cb:30:af:
                    40:74:7f:87:2b:52:a4:29:5b:31:2c:37:c1:13:12:
                    f0:3f
                Exponent: 65537 (0x10001)
        X509v3 extensions:
            X509v3 Basic Constraints: 
                CA:FALSE
            Netscape Comment: 
                OpenSSL Generated Certificate
            X509v3 Subject Key Identifier: 
                42:02:90:1C:B8:7F:9C:56:6E:0B:13:9B:B6:61:2B:37:93:03:1E:0E
            X509v3 Authority Key Identifier: 
                keyid:E0:A5:4A:9E:10:1C:97:09:A2:D4:F1:83:B0:89:C1:ED:AE:4B:FE:25

            X509v3 Subject Alternative Name: 
                DNS:www.yuchen2023.com, DNS:www.yuchen2023A.com, DNS:www.yuchen2023B.com
    Signature Algorithm: sha256WithRSAEncryption
         12:53:69:c2:69:7b:95:82:e2:b2:73:61:67:01:65:c2:c8:84:
         51:70:27:39:73:40:59:70:53:73:bd:db:84:4a:8e:32:30:98:
         bf:3a:3a:11:59:42:ca:e6:30:cc:3c:af:15:90:9f:7e:0d:c2:
         4e:da:60:15:2e:dd:27:31:44:c5:8c:f9:96:55:68:6f:17:3d:
         0d:7d:9c:8b:f2:8a:1e:0c:53:44:70:a7:13:77:75:52:8c:f3:
         8f:f1:d3:eb:7e:c3:af:d3:c6:b2:ab:9a:4b:3e:d4:0f:be:e3:
         69:14:50:67:0e:4a:07:66:b4:dd:e4:59:ce:0d:2d:3d:af:42:
         c7:2f:44:3c:a4:15:de:16:e0:49:59:b5:02:ae:5c:51:da:f8:
         a6:e1:f6:38:ec:e7:62:db:dc:09:e0:a6:b5:30:56:90:8e:62:
         6f:a5:a2:ec:ea:99:86:75:d2:66:77:0f:a1:a7:42:ca:59:4b:
         fb:2e:ff:6f:10:34:22:5a:a6:ac:dd:ec:88:7f:a7:37:61:06:
         a3:5d:73:db:b4:0b:a0:db:7e:4d:5e:96:bb:32:71:51:12:f7:
         e9:9f:1b:1a:59:2f:9d:da:3d:7f:cb:55:9e:a2:4e:b9:74:db:
         df:61:82:28:0b:97:30:cb:e7:c6:90:8e:8a:6b:92:c3:cf:72:
         7e:24:00:bd:49:56:55:33:a8:91:ca:bc:b8:08:6c:ba:f4:dc:
         3b:f8:04:d2:20:a7:82:26:44:07:cd:02:61:57:04:57:0c:e4:
         c9:6e:d8:8a:55:e4:41:5c:ea:74:f8:58:5c:8f:e9:0c:a8:03:
         2f:b0:8f:84:99:2d:8b:7f:6f:fd:56:7a:57:3c:80:f9:89:74:
         a0:b5:13:40:ca:66:e4:76:54:19:66:82:d1:51:29:ce:c5:4b:
         db:95:a6:25:29:26:44:2c:d3:11:be:08:37:06:bf:17:ea:86:
         2f:75:93:6a:31:02:72:b8:48:53:bc:46:b5:4b:d2:c0:d5:4e:
         a6:62:a6:fd:aa:2f:d3:e0:0d:1a:20:62:b5:3d:b4:f7:fc:a7:
         ca:7a:47:a4:f0:fd:a9:fc:2c:84:37:23:9f:18:50:80:e1:4b:
         d5:e7:32:27:88:c5:99:6a:f6:f4:74:ed:05:f4:78:02:d8:88:
         e7:87:d6:85:f8:57:fd:b3:ee:25:f7:4b:a3:ff:c0:77:3e:06:
         6f:ef:ab:2d:47:f0:1f:d6:60:c0:49:8c:4b:33:67:bd:23:dd:
         79:69:44:44:6d:0d:94:b0:a8:8d:6b:cd:04:31:50:11:d3:83:
         91:b0:b3:d2:8e:2d:9e:97:71:e5:7b:04:a7:b1:eb:68:8b:91:
         3d:74:c3:b1:f5:c5:80:53
-----BEGIN CERTIFICATE-----
MIIExTCCAq2gAwIBAgICEjUwDQYJKoZIhvcNAQELBQAwPzEYMBYGA1UEAwwPd3d3
Lm1vZGVsQ0EuY29tMRYwFAYDVQQKDA1Nb2RlbCBDQSBMVEQuMQswCQYDVQQGEwJV
UzAeFw0yMzEwMTYwODAxNDlaFw0zMzEwMTMwODAxNDlaMEQxCzAJBgNVBAYTAlVT
MRgwFgYDVQQKDA9ZdWNoZW4yMDIzIEluYy4xGzAZBgNVBAMMEnd3dy55dWNoZW4y
MDIzLmNvbTCCASIwDQYJKoZIhvcNAQEBBQADggEPADCCAQoCggEBALwa32MqjF+Z
pZL1ArJ/+LwY+TEjqsVgLQekXDj8ZvKNrNGgiYTiOftO2JdIlK0mQJKwgsXMT3ei
cPsDMXVHZcA6EEP1GG8CXQmOpLgAm5ulxA5kic4vAKLIVJuLaLNElmd+YYDEWK1i
cSQwoc7IsLWnXk3h+poZ/kbNaVu8mHTE1b7M5kjoEw6Z7el0WUGrmfwZ4nAxg9Hl
k5Nryf/yB+skJT7zmyrsUXrB8z93og6/1E8MeJmbLowUKSWPwrOAPQK5ICbc5+1K
02hPASUuVCbblZg4GjfOjxWXIpSNHZI1F0d/5QUwxQu/P7URyzCvQHR/hytSpClb
MSw3wRMS8D8CAwEAAaOBxTCBwjAJBgNVHRMEAjAAMCwGCWCGSAGG+EIBDQQfFh1P
cGVuU1NMIEdlbmVyYXRlZCBDZXJ0aWZpY2F0ZTAdBgNVHQ4EFgQUQgKQHLh/nFZu
CxObtmErN5MDHg4wHwYDVR0jBBgwFoAU4KVKnhAclwmi1PGDsInB7a5L/iUwRwYD
VR0RBEAwPoISd3d3Lnl1Y2hlbjIwMjMuY29tghN3d3cueXVjaGVuMjAyM0EuY29t
ghN3d3cueXVjaGVuMjAyM0IuY29tMA0GCSqGSIb3DQEBCwUAA4ICAQASU2nCaXuV
guKyc2FnAWXCyIRRcCc5c0BZcFNzvduESo4yMJi/OjoRWULK5jDMPK8VkJ9+DcJO
2mAVLt0nMUTFjPmWVWhvFz0NfZyL8ooeDFNEcKcTd3VSjPOP8dPrfsOv08ayq5pL
PtQPvuNpFFBnDkoHZrTd5FnODS09r0LHL0Q8pBXeFuBJWbUCrlxR2vim4fY47Odi
29wJ4Ka1MFaQjmJvpaLs6pmGddJmdw+hp0LKWUv7Lv9vEDQiWqas3eyIf6c3YQaj
XXPbtAug235NXpa7MnFREvfpnxsaWS+d2j1/y1Weok65dNvfYYIoC5cwy+fGkI6K
a5LDz3J+JAC9SVZVM6iRyry4CGy69Nw7+ATSIKeCJkQHzQJhVwRXDOTJbtiKVeRB
XOp0+Fhcj+kMqAMvsI+EmS2Lf2/9VnpXPID5iXSgtRNAymbkdlQZZoLRUSnOxUvb
laYlKSZELNMRvgg3Br8X6oYvdZNqMQJyuEhTvEa1S9LA1U6mYqb9qi/T4A0aIGK1
PbT3/KfKekek8P2p/CyENyOfGFCA4UvV5zIniMWZavb0dO0F9HgC2Ijnh9aF+Ff9
s+4l90uj/8B3PgZv76stR/Af1mDASYxLM2e9I915aUREbQ2UsKiNa80EMVAR04OR
sLPSji2el3HlewSnsetoi5E9dMOx9cWAUw==
-----END CERTIFICATE-----
