Certificate:
    Data:
        Version: 3 (0x2)
        Serial Number: 4662 (0x1236)
        Signature Algorithm: sha256WithRSAEncryption
        Issuer: CN=www.modelCA.com, O=Model CA LTD., C=US
        Validity
            Not Before: Oct 16 09:19:05 2023 GMT
            Not After : Oct 13 09:19:05 2033 GMT
        Subject: C=US, O= Example Domain Inc., CN=www.example.com
        Subject Public Key Info:
            Public Key Algorithm: rsaEncryption
                RSA Public-Key: (2048 bit)
                Modulus:
                    00:9d:8d:19:c7:c3:4f:34:d6:15:57:7d:38:f4:29:
                    1f:3b:45:89:3a:cd:14:3b:1d:f9:d1:ad:fd:7c:c0:
                    6d:f7:cd:3a:84:e0:d7:5c:aa:6c:2b:7a:1a:e0:f0:
                    ba:db:7d:4c:65:92:14:49:f5:d4:33:be:e7:60:e2:
                    8b:f3:fc:5d:48:5c:66:06:c3:b5:f5:2c:4a:64:26:
                    d6:ba:8e:3f:55:15:e0:1c:e4:ad:a1:5f:d9:11:50:
                    ee:93:1c:e7:a9:91:99:cd:b3:55:72:59:5a:a3:95:
                    b8:97:36:3e:66:2b:b1:15:76:a5:5e:d3:08:7b:09:
                    96:11:4b:f7:e0:2c:5d:e7:4d:e2:21:7f:9c:71:28:
                    89:04:e3:7b:0e:1b:a7:06:e0:13:a4:43:18:d7:60:
                    f2:b4:8f:d8:d0:27:29:86:f3:22:f9:89:b8:1a:8b:
                    f3:28:1f:04:9a:b2:54:55:5b:da:55:4a:ec:be:34:
                    95:0d:e0:36:a2:0e:df:66:37:fc:9f:20:55:b9:74:
                    8c:93:a4:b5:3c:6c:88:53:9a:c0:e4:bb:f3:a1:81:
                    06:84:d1:cf:2b:85:61:84:2f:34:fc:96:e1:da:a2:
                    e1:e7:00:21:d3:d9:a0:27:1d:5e:6f:2b:26:b9:82:
                    2e:2f:05:3c:6f:50:8f:6d:79:0a:1c:bd:bc:fc:ad:
                    19:11
                Exponent: 65537 (0x10001)
        X509v3 extensions:
            X509v3 Basic Constraints: 
                CA:FALSE
            Netscape Comment: 
                OpenSSL Generated Certificate
            X509v3 Subject Key Identifier: 
                AF:08:6C:8D:3A:95:1B:AD:83:A9:1B:56:96:93:F3:49:D8:78:C0:C7
            X509v3 Authority Key Identifier: 
                keyid:E0:A5:4A:9E:10:1C:97:09:A2:D4:F1:83:B0:89:C1:ED:AE:4B:FE:25

    Signature Algorithm: sha256WithRSAEncryption
         7c:70:35:86:2c:1f:96:1a:e1:85:42:68:28:dc:59:8b:a0:7e:
         35:0e:88:a5:87:7f:b6:e7:8c:ac:46:6c:ba:eb:0f:0a:7f:08:
         55:79:6f:10:1c:c2:44:16:8a:49:41:47:d2:b1:c6:4b:a8:60:
         e4:7f:3a:6f:a3:06:a0:d6:5e:9a:12:c0:16:ec:f8:50:3f:29:
         d0:82:c0:18:6f:ce:a7:a8:50:6c:26:b8:a0:41:00:06:9c:0d:
         84:d0:7a:84:17:d8:2f:cd:3d:f0:a6:e2:9b:c1:19:2a:af:3d:
         4e:ba:55:5a:9e:04:d4:6b:ff:48:74:fa:08:31:4d:49:c1:59:
         5c:ee:c4:d0:0a:22:0d:81:e7:69:b1:d6:f6:40:60:85:82:5a:
         eb:86:d1:91:13:66:b2:33:7e:9c:e4:ec:1b:45:8b:14:1f:a9:
         1f:25:5b:92:c3:00:c9:aa:ce:9b:fe:9a:da:69:7f:1b:09:79:
         e6:47:43:c2:8c:1c:72:54:e8:89:17:dd:ee:d8:bc:85:09:34:
         73:2c:a0:fe:6f:4f:de:29:d3:fa:c1:0c:6b:24:49:c6:49:2c:
         31:58:8e:f9:f3:51:de:b8:c5:81:92:92:b7:fd:ea:99:0e:ab:
         b7:5e:70:1f:37:9c:2c:da:47:bc:47:c2:a7:c5:02:d3:df:1e:
         f3:31:f1:4a:0f:0c:ff:b8:51:fe:ab:62:62:03:e3:aa:0e:09:
         35:dd:04:44:37:67:d7:de:50:32:d6:eb:44:bb:62:26:1c:14:
         a6:9e:9a:31:8e:ef:8d:54:e2:9a:d0:c5:d2:f2:6b:32:fc:db:
         72:d3:5f:41:dd:6d:62:df:a8:c5:8f:90:34:d2:ba:60:38:ce:
         a9:aa:25:39:91:8c:cc:c5:45:1f:1c:86:35:8a:89:9b:cc:b2:
         32:1d:c5:51:80:38:41:d9:bd:55:eb:eb:ae:c6:85:8e:46:c5:
         85:9a:8a:88:d2:bb:e3:2c:aa:21:b2:4a:f7:5e:cc:67:f0:8f:
         18:2e:e7:e8:d0:0f:26:d8:88:87:e7:b9:32:0a:16:b8:6b:73:
         80:33:8d:45:f1:c2:4a:16:d9:85:ca:cf:3a:2a:54:3b:5e:a2:
         85:5e:35:49:0f:b6:76:41:02:31:c8:bd:02:76:15:87:e6:ba:
         f8:85:49:a7:a6:27:4d:ea:f6:b7:b3:59:f3:e7:ac:dc:f9:72:
         95:0e:d3:47:8d:65:59:c8:fb:b6:9c:6e:35:e2:a6:d7:0d:dc:
         fb:eb:3d:cb:99:9a:c3:50:4b:1c:22:91:ec:88:f0:db:7c:ce:
         b3:9e:0a:9b:96:88:14:23:d0:22:d6:b7:b6:76:ab:c5:1c:7f:
         7b:b0:33:30:cd:56:bd:45
-----BEGIN CERTIFICATE-----
MIIEfDCCAmSgAwIBAgICEjYwDQYJKoZIhvcNAQELBQAwPzEYMBYGA1UEAwwPd3d3
Lm1vZGVsQ0EuY29tMRYwFAYDVQQKDA1Nb2RlbCBDQSBMVEQuMQswCQYDVQQGEwJV
UzAeFw0yMzEwMTYwOTE5MDVaFw0zMzEwMTMwOTE5MDVaMEYxCzAJBgNVBAYTAlVT
MR0wGwYDVQQKDBQgRXhhbXBsZSBEb21haW4gSW5jLjEYMBYGA1UEAwwPd3d3LmV4
YW1wbGUuY29tMIIBIjANBgkqhkiG9w0BAQEFAAOCAQ8AMIIBCgKCAQEAnY0Zx8NP
NNYVV3049CkfO0WJOs0UOx350a39fMBt9806hODXXKpsK3oa4PC6231MZZIUSfXU
M77nYOKL8/xdSFxmBsO19SxKZCbWuo4/VRXgHOStoV/ZEVDukxznqZGZzbNVclla
o5W4lzY+ZiuxFXalXtMIewmWEUv34Cxd503iIX+ccSiJBON7DhunBuATpEMY12Dy
tI/Y0CcphvMi+Ym4GovzKB8EmrJUVVvaVUrsvjSVDeA2og7fZjf8nyBVuXSMk6S1
PGyIU5rA5LvzoYEGhNHPK4VhhC80/Jbh2qLh5wAh09mgJx1ebysmuYIuLwU8b1CP
bXkKHL28/K0ZEQIDAQABo3sweTAJBgNVHRMEAjAAMCwGCWCGSAGG+EIBDQQfFh1P
cGVuU1NMIEdlbmVyYXRlZCBDZXJ0aWZpY2F0ZTAdBgNVHQ4EFgQUrwhsjTqVG62D
qRtWlpPzSdh4wMcwHwYDVR0jBBgwFoAU4KVKnhAclwmi1PGDsInB7a5L/iUwDQYJ
KoZIhvcNAQELBQADggIBAHxwNYYsH5Ya4YVCaCjcWYugfjUOiKWHf7bnjKxGbLrr
Dwp/CFV5bxAcwkQWiklBR9KxxkuoYOR/Om+jBqDWXpoSwBbs+FA/KdCCwBhvzqeo
UGwmuKBBAAacDYTQeoQX2C/NPfCm4pvBGSqvPU66VVqeBNRr/0h0+ggxTUnBWVzu
xNAKIg2B52mx1vZAYIWCWuuG0ZETZrIzfpzk7BtFixQfqR8lW5LDAMmqzpv+mtpp
fxsJeeZHQ8KMHHJU6IkX3e7YvIUJNHMsoP5vT94p0/rBDGskScZJLDFYjvnzUd64
xYGSkrf96pkOq7decB83nCzaR7xHwqfFAtPfHvMx8UoPDP+4Uf6rYmID46oOCTXd
BEQ3Z9feUDLW60S7YiYcFKaemjGO741U4prQxdLyazL823LTX0HdbWLfqMWPkDTS
umA4zqmqJTmRjMzFRR8chjWKiZvMsjIdxVGAOEHZvVXr667GhY5GxYWaiojSu+Ms
qiGySvdezGfwjxgu5+jQDybYiIfnuTIKFrhrc4AzjUXxwkoW2YXKzzoqVDteooVe
NUkPtnZBAjHIvQJ2FYfmuviFSaemJ03q9rezWfPnrNz5cpUO00eNZVnI+7acbjXi
ptcN3PvrPcuZmsNQSxwikeyI8Nt8zrOeCpuWiBQj0CLWt7Z2q8Ucf3uwMzDNVr1F
-----END CERTIFICATE-----
